target datalayout = "e-m:e-p270:32:32-p271:32:32-p272:64:64-i64:64-i128:128-f80:128-n8:16:32:64-S128"
target triple = "x86_64-pc-linux-gnu"

%"struct.std::atomic" = type { %"struct.std::__atomic_base" }
%"struct.std::__atomic_base" = type { i64 }
%"class.grpc_core::PolymorphicRefCount" = type { ptr }
%"struct.std::_Rb_tree_header" = type { %"struct.std::_Rb_tree_node_base", i64 }
%"struct.std::_Rb_tree_node_base" = type { i32, ptr, ptr, ptr }
%"class.grpc_core::ClientChannel" = type { %"class.grpc_core::Channel", %"class.grpc_core::ChannelArgs", %"class.std::shared_ptr", %"class.std::__cxx11::basic_string", i64, %"class.grpc_core::RefCountedPtr.24", ptr, %"class.std::__cxx11::basic_string", ptr, %"class.grpc_core::GlobalStatsPluginRegistry::StatsPluginGroup", %"class.grpc_core::Duration", %"class.grpc_core::IdleFilterState", %"class.grpc_core::SingleSetPtr", %"class.grpc_core::Observable", %"class.grpc_core::Observable.31", %"class.grpc_core::RefCountedPtr.33", %"class.std::shared_ptr.34", %"class.grpc_core::ConnectivityStateTracker", %"class.std::unique_ptr.44", i8, %"class.grpc_core::RefCountedPtr.24", %"class.grpc_core::RefCountedPtr.52", %"class.grpc_core::RefCountedPtr.53", %"class.std::unique_ptr.54", %"class.grpc_core::RefCountedPtr.60", %"class.std::map.61", %"class.absl::lts_20240722::flat_hash_set.67", i32, %"class.absl::lts_20240722::Status", %"class.absl::lts_20240722::Mutex", %"class.std::__cxx11::basic_string", %"class.std::__cxx11::basic_string" }
%"class.grpc_core::Channel" = type { %"class.grpc_core::UnstartedCallDestination", %"class.std::__cxx11::basic_string", %"class.grpc_core::RefCountedPtr.13", %struct.grpc_compression_options, %"class.absl::lts_20240722::Mutex", %"class.std::map.16", %"class.grpc_core::RefCountedPtr.22" }
%"class.grpc_core::UnstartedCallDestination" = type { %"class.grpc_core::DualRefCounted.9" }
%"class.grpc_core::DualRefCounted.9" = type { %"class.grpc_core::PolymorphicRefCount", %"struct.std::atomic" }
%"class.grpc_core::RefCountedPtr.13" = type { ptr }
%struct.grpc_compression_options = type { i32, %"struct.grpc_compression_options::grpc_compression_options_default_level", %"struct.grpc_compression_options::grpc_compression_options_default_algorithm" }
%"struct.grpc_compression_options::grpc_compression_options_default_level" = type { i32, i32 }
%"struct.grpc_compression_options::grpc_compression_options_default_algorithm" = type { i32, i32 }
%"class.std::map.16" = type { %"class.std::_Rb_tree.17" }
%"class.std::_Rb_tree.17" = type { %"struct.std::_Rb_tree<std::pair<std::__cxx11::basic_string<char>, std::__cxx11::basic_string<char>>, std::pair<const std::pair<std::__cxx11::basic_string<char>, std::__cxx11::basic_string<char>>, grpc_core::Channel::RegisteredCall>, std::_Select1st<std::pair<const std::pair<std::__cxx11::basic_string<char>, std::__cxx11::basic_string<char>>, grpc_core::Channel::RegisteredCall>>, std::less<std::pair<std::__cxx11::basic_string<char>, std::__cxx11::basic_string<char>>>>::_Rb_tree_impl" }
%"struct.std::_Rb_tree<std::pair<std::__cxx11::basic_string<char>, std::__cxx11::basic_string<char>>, std::pair<const std::pair<std::__cxx11::basic_string<char>, std::__cxx11::basic_string<char>>, grpc_core::Channel::RegisteredCall>, std::_Select1st<std::pair<const std::pair<std::__cxx11::basic_string<char>, std::__cxx11::basic_string<char>>, grpc_core::Channel::RegisteredCall>>, std::less<std::pair<std::__cxx11::basic_string<char>, std::__cxx11::basic_string<char>>>>::_Rb_tree_impl" = type { [8 x i8], %"struct.std::_Rb_tree_header" }
%"class.grpc_core::RefCountedPtr.22" = type { ptr }
%"class.grpc_core::ChannelArgs" = type { %"class.grpc_core::AVL" }
%"class.grpc_core::AVL" = type { %"class.grpc_core::RefCountedPtr.23" }
%"class.grpc_core::RefCountedPtr.23" = type { ptr }
%"class.std::shared_ptr" = type { %"class.std::__shared_ptr" }
%"class.std::__shared_ptr" = type { ptr, %"class.std::__shared_count" }
%"class.std::__shared_count" = type { ptr }
%"class.grpc_core::GlobalStatsPluginRegistry::StatsPluginGroup" = type { %"class.std::vector" }
%"class.std::vector" = type { %"struct.std::_Vector_base" }
%"struct.std::_Vector_base" = type { %"struct.std::_Vector_base<grpc_core::GlobalStatsPluginRegistry::StatsPluginGroup::PluginState, std::allocator<grpc_core::GlobalStatsPluginRegistry::StatsPluginGroup::PluginState>>::_Vector_impl" }
%"struct.std::_Vector_base<grpc_core::GlobalStatsPluginRegistry::StatsPluginGroup::PluginState, std::allocator<grpc_core::GlobalStatsPluginRegistry::StatsPluginGroup::PluginState>>::_Vector_impl" = type { %"struct.std::_Vector_base<grpc_core::GlobalStatsPluginRegistry::StatsPluginGroup::PluginState, std::allocator<grpc_core::GlobalStatsPluginRegistry::StatsPluginGroup::PluginState>>::_Vector_impl_data" }
%"struct.std::_Vector_base<grpc_core::GlobalStatsPluginRegistry::StatsPluginGroup::PluginState, std::allocator<grpc_core::GlobalStatsPluginRegistry::StatsPluginGroup::PluginState>>::_Vector_impl_data" = type { ptr, ptr, ptr }
%"class.grpc_core::Duration" = type { i64 }
%"class.grpc_core::IdleFilterState" = type { %"struct.std::atomic" }
%"class.grpc_core::SingleSetPtr" = type { %"struct.std::atomic.28" }
%"struct.std::atomic.28" = type { %"struct.std::__atomic_base.29" }
%"struct.std::__atomic_base.29" = type { ptr }
%"class.grpc_core::Observable" = type { %"class.grpc_core::RefCountedPtr.30" }
%"class.grpc_core::RefCountedPtr.30" = type { ptr }
%"class.grpc_core::Observable.31" = type { %"class.grpc_core::RefCountedPtr.32" }
%"class.grpc_core::RefCountedPtr.32" = type { ptr }
%"class.grpc_core::RefCountedPtr.33" = type { ptr }
%"class.std::shared_ptr.34" = type { %"class.std::__shared_ptr.35" }
%"class.std::__shared_ptr.35" = type { ptr, %"class.std::__shared_count" }
%"class.grpc_core::ConnectivityStateTracker" = type { ptr, %"struct.std::atomic.37", %"class.absl::lts_20240722::Status", %"class.absl::lts_20240722::flat_hash_set" }
%"struct.std::atomic.37" = type { i32 }
%"class.absl::lts_20240722::flat_hash_set" = type { %"class.absl::lts_20240722::container_internal::raw_hash_set" }
%"class.absl::lts_20240722::container_internal::raw_hash_set" = type { %"class.absl::lts_20240722::container_internal::CompressedTuple" }
%"class.absl::lts_20240722::container_internal::CompressedTuple" = type { %"struct.absl::lts_20240722::container_internal::internal_compressed_tuple::CompressedTupleImpl" }
%"struct.absl::lts_20240722::container_internal::internal_compressed_tuple::CompressedTupleImpl" = type { %"struct.absl::lts_20240722::container_internal::internal_compressed_tuple::Storage" }
%"struct.absl::lts_20240722::container_internal::internal_compressed_tuple::Storage" = type { %"class.absl::lts_20240722::container_internal::CommonFields" }
%"class.absl::lts_20240722::container_internal::CommonFields" = type { i64, i64, %"union.absl::lts_20240722::container_internal::HeapOrSoo" }
%"union.absl::lts_20240722::container_internal::HeapOrSoo" = type { %"struct.absl::lts_20240722::container_internal::HeapPtrs" }
%"struct.absl::lts_20240722::container_internal::HeapPtrs" = type { ptr, %"union.absl::lts_20240722::container_internal::MaybeInitializedPtr" }
%"union.absl::lts_20240722::container_internal::MaybeInitializedPtr" = type { ptr }
%"class.std::unique_ptr.44" = type { %"struct.std::__uniq_ptr_data.45" }
%"struct.std::__uniq_ptr_data.45" = type { %"class.std::__uniq_ptr_impl.46" }
%"class.std::__uniq_ptr_impl.46" = type { %"class.std::tuple.47" }
%"class.std::tuple.47" = type { %"struct.std::_Tuple_impl.48" }
%"struct.std::_Tuple_impl.48" = type { %"struct.std::_Head_base.51" }
%"struct.std::_Head_base.51" = type { ptr }
%"class.grpc_core::RefCountedPtr.24" = type { ptr }
%"class.grpc_core::RefCountedPtr.52" = type { ptr }
%"class.grpc_core::RefCountedPtr.53" = type { ptr }
%"class.std::unique_ptr.54" = type { %"struct.std::__uniq_ptr_data.55" }
%"struct.std::__uniq_ptr_data.55" = type { %"class.std::__uniq_ptr_impl.56" }
%"class.std::__uniq_ptr_impl.56" = type { %"class.std::tuple.57" }
%"class.std::tuple.57" = type { %"struct.std::_Tuple_impl.58" }
%"struct.std::_Tuple_impl.58" = type { %"struct.std::_Head_base.59" }
%"struct.std::_Head_base.59" = type { ptr }
%"class.grpc_core::RefCountedPtr.60" = type { ptr }
%"class.std::map.61" = type { %"class.std::_Rb_tree.62" }
%"class.std::_Rb_tree.62" = type { %"struct.std::_Rb_tree<grpc_core::Subchannel *, std::pair<grpc_core::Subchannel *const, int>, std::_Select1st<std::pair<grpc_core::Subchannel *const, int>>, std::less<grpc_core::Subchannel *>>::_Rb_tree_impl" }
%"struct.std::_Rb_tree<grpc_core::Subchannel *, std::pair<grpc_core::Subchannel *const, int>, std::_Select1st<std::pair<grpc_core::Subchannel *const, int>>, std::less<grpc_core::Subchannel *>>::_Rb_tree_impl" = type { [8 x i8], %"struct.std::_Rb_tree_header" }
%"class.absl::lts_20240722::flat_hash_set.67" = type { %"class.absl::lts_20240722::container_internal::raw_hash_set.68" }
%"class.absl::lts_20240722::container_internal::raw_hash_set.68" = type { %"class.absl::lts_20240722::container_internal::CompressedTuple.69" }
%"class.absl::lts_20240722::container_internal::CompressedTuple.69" = type { %"struct.absl::lts_20240722::container_internal::internal_compressed_tuple::CompressedTupleImpl.70" }
%"struct.absl::lts_20240722::container_internal::internal_compressed_tuple::CompressedTupleImpl.70" = type { %"struct.absl::lts_20240722::container_internal::internal_compressed_tuple::Storage" }
%"class.absl::lts_20240722::Status" = type { i64 }
%"class.absl::lts_20240722::Mutex" = type { %"struct.std::atomic.14" }
%"struct.std::atomic.14" = type { %"struct.std::__atomic_base.15" }
%"struct.std::__atomic_base.15" = type { i64 }
%"class.std::__cxx11::basic_string" = type { %"struct.std::__cxx11::basic_string<char>::_Alloc_hider", i64, %union.anon }
%"struct.std::__cxx11::basic_string<char>::_Alloc_hider" = type { ptr }
%union.anon = type { i64, [8 x i8] }
%"class.absl::lts_20240722::MutexLock" = type { ptr }
%struct.grpc_channel_info = type { ptr, ptr }

; Function Attrs: mustprogress nounwind uwtable
define available_externally noundef ptr @_ZNKSt7__cxx1112basic_stringIcSt11char_traitsIcESaIcEE7_M_dataEv(ptr noundef nonnull align 8 dereferenceable(32) %0) #5 align 2 {
  %2 = alloca ptr, align 8
  store ptr %0, ptr %2, align 8, !tbaa !241
  %3 = load ptr, ptr %2, align 8
  %4 = getelementptr inbounds nuw %"class.std::__cxx11::basic_string", ptr %3, i32 0, i32 0
  %5 = getelementptr inbounds nuw %"struct.std::__cxx11::basic_string<char>::_Alloc_hider", ptr %4, i32 0, i32 0
  %6 = load ptr, ptr %5, align 8, !tbaa !1198
  ret ptr %6
}

; Function Attrs: mustprogress nounwind uwtable
define linkonce_odr void @_ZN4absl12lts_202407229MutexLockD2Ev(ptr noundef nonnull align 8 dereferenceable(8) %0) unnamed_addr #5 comdat align 2 personality ptr @__gxx_personality_v0 {
  %2 = alloca ptr, align 8
  store ptr %0, ptr %2, align 8, !tbaa !387
  %3 = load ptr, ptr %2, align 8
  %4 = getelementptr inbounds nuw %"class.absl::lts_20240722::MutexLock", ptr %3, i32 0, i32 0
  %5 = load ptr, ptr %4, align 8, !tbaa !389
  invoke void @_ZN4absl12lts_202407225Mutex6UnlockEv(ptr noundef nonnull align 8 dereferenceable(8) %5)
          to label %6 unwind label %7

6:                                                ; preds = %1
  ret void

7:                                                ; preds = %1
  %8 = landingpad { ptr, i32 }
          catch ptr null
  %9 = extractvalue { ptr, i32 } %8, 0
  call void @__clang_call_terminate(ptr %9) #36
  unreachable
}

; Function Attrs: mustprogress nounwind uwtable
define available_externally noundef ptr @_ZNKSt7__cxx1112basic_stringIcSt11char_traitsIcESaIcEE5c_strEv(ptr noundef nonnull align 8 dereferenceable(32) %0) #5 align 2 {
  %2 = alloca ptr, align 8
  store ptr %0, ptr %2, align 8, !tbaa !241
  %3 = load ptr, ptr %2, align 8
  %4 = call noundef ptr @_ZNKSt7__cxx1112basic_stringIcSt11char_traitsIcESaIcEE7_M_dataEv(ptr noundef nonnull align 8 dereferenceable(32) %3)
  ret ptr %4
}

; Function Attrs: mustprogress uwtable
define linkonce_odr void @_ZN4absl12lts_202407229MutexLockC2EPNS0_5MutexE(ptr noundef nonnull align 8 dereferenceable(8) %0, ptr noundef %1) unnamed_addr #4 comdat align 2 {
  %3 = alloca ptr, align 8
  %4 = alloca ptr, align 8
  store ptr %0, ptr %3, align 8, !tbaa !387
  store ptr %1, ptr %4, align 8, !tbaa !331
  %5 = load ptr, ptr %3, align 8
  %6 = getelementptr inbounds nuw %"class.absl::lts_20240722::MutexLock", ptr %5, i32 0, i32 0
  %7 = load ptr, ptr %4, align 8, !tbaa !331
  store ptr %7, ptr %6, align 8, !tbaa !389
  %8 = getelementptr inbounds nuw %"class.absl::lts_20240722::MutexLock", ptr %5, i32 0, i32 0
  %9 = load ptr, ptr %8, align 8, !tbaa !389
  call void @_ZN4absl12lts_202407225Mutex4LockEv(ptr noundef nonnull align 8 dereferenceable(8) %9)
  ret void
}

; Function Attrs: mustprogress uwtable
define void @_ZN9grpc_core13ClientChannel7GetInfoEPK17grpc_channel_info(ptr noundef nonnull align 8 dereferenceable(632) %0, ptr noundef %1) unnamed_addr #4 align 2 personality ptr @__gxx_personality_v0 {
  %3 = alloca ptr, align 8
  %4 = alloca ptr, align 8
  %5 = alloca %"class.absl::lts_20240722::MutexLock", align 8
  %6 = alloca ptr, align 8
  %7 = alloca i32, align 4
  store ptr %0, ptr %3, align 8, !tbaa !14
  store ptr %1, ptr %4, align 8, !tbaa !191
  %8 = load ptr, ptr %3, align 8
  call void @llvm.lifetime.start.p0(i64 8, ptr %5) #3
  %9 = getelementptr inbounds nuw %"class.grpc_core::ClientChannel", ptr %8, i32 0, i32 29
  call void @_ZN4absl12lts_202407229MutexLockC2EPNS0_5MutexE(ptr noundef nonnull align 8 dereferenceable(8) %5, ptr noundef %9)
  %10 = load ptr, ptr %4, align 8, !tbaa !191
  %11 = getelementptr inbounds nuw %struct.grpc_channel_info, ptr %10, i32 0, i32 0
  %12 = load ptr, ptr %11, align 8, !tbaa !383
  %13 = icmp ne ptr %12, null
  br i1 %13, label %14, label %26

14:                                               ; preds = %2
  %15 = getelementptr inbounds nuw %"class.grpc_core::ClientChannel", ptr %8, i32 0, i32 30
  %16 = call noundef ptr @_ZNKSt7__cxx1112basic_stringIcSt11char_traitsIcESaIcEE5c_strEv(ptr noundef nonnull align 8 dereferenceable(32) %15) #3
  %17 = invoke ptr @gpr_strdup(ptr noundef %16)
          to label %18 unwind label %22

18:                                               ; preds = %14
  %19 = load ptr, ptr %4, align 8, !tbaa !191
  %20 = getelementptr inbounds nuw %struct.grpc_channel_info, ptr %19, i32 0, i32 0
  %21 = load ptr, ptr %20, align 8, !tbaa !383
  store ptr %17, ptr %21, align 8, !tbaa !138
  br label %26

22:                                               ; preds = %31, %14
  %23 = landingpad { ptr, i32 }
          cleanup
  %24 = extractvalue { ptr, i32 } %23, 0
  store ptr %24, ptr %6, align 8
  %25 = extractvalue { ptr, i32 } %23, 1
  store i32 %25, ptr %7, align 4
  call void @_ZN4absl12lts_202407229MutexLockD2Ev(ptr noundef nonnull align 8 dereferenceable(8) %5) #3
  call void @llvm.lifetime.end.p0(i64 8, ptr %5) #3
  br label %40

26:                                               ; preds = %18, %2
  %27 = load ptr, ptr %4, align 8, !tbaa !191
  %28 = getelementptr inbounds nuw %struct.grpc_channel_info, ptr %27, i32 0, i32 1
  %29 = load ptr, ptr %28, align 8, !tbaa !386
  %30 = icmp ne ptr %29, null
  br i1 %30, label %31, label %39

31:                                               ; preds = %26
  %32 = getelementptr inbounds nuw %"class.grpc_core::ClientChannel", ptr %8, i32 0, i32 31
  %33 = call noundef ptr @_ZNKSt7__cxx1112basic_stringIcSt11char_traitsIcESaIcEE5c_strEv(ptr noundef nonnull align 8 dereferenceable(32) %32) #3
  %34 = invoke ptr @gpr_strdup(ptr noundef %33)
          to label %35 unwind label %22

35:                                               ; preds = %31
  %36 = load ptr, ptr %4, align 8, !tbaa !191
  %37 = getelementptr inbounds nuw %struct.grpc_channel_info, ptr %36, i32 0, i32 1
  %38 = load ptr, ptr %37, align 8, !tbaa !386
  store ptr %34, ptr %38, align 8, !tbaa !138
  br label %39

39:                                               ; preds = %35, %26
  call void @_ZN4absl12lts_202407229MutexLockD2Ev(ptr noundef nonnull align 8 dereferenceable(8) %5) #3
  call void @llvm.lifetime.end.p0(i64 8, ptr %5) #3
  ret void

40:                                               ; preds = %22
  %41 = load ptr, ptr %6, align 8
  %42 = load i32, ptr %7, align 4
  %43 = insertvalue { ptr, i32 } poison, ptr %41, 0
  %44 = insertvalue { ptr, i32 } %43, i32 %42, 1
  resume { ptr, i32 } %44
}