; Function Attrs: mustprogress uwtable
define void @_ZN9grpc_core13ClientChannel7GetInfoEPK17grpc_channel_info(ptr noundef nonnull align 8 dereferenceable(632) %0, ptr noundef readonly captures(none) %1) unnamed_addr #13 align 2 personality ptr @__gxx_personality_v0 {
  %3 = getelementptr inbounds nuw i8, ptr %0, i64 560
  tail call void @_ZN4absl12lts_202407225Mutex4LockEv(ptr noundef nonnull align 8 dereferenceable(8) %3)
  %4 = load ptr, ptr %1, align 8, !tbaa !324
  %.not = icmp eq ptr %4, null
  br i1 %.not, label %16, label %5

5:                                                ; preds = %2
  %6 = getelementptr inbounds nuw i8, ptr %0, i64 568
  %7 = load ptr, ptr %6, align 8, !tbaa !201
  %8 = invoke ptr @gpr_strdup(ptr noundef %7)
          to label %9 unwind label %11

9:                                                ; preds = %5
  %10 = load ptr, ptr %1, align 8, !tbaa !324
  store ptr %8, ptr %10, align 8, !tbaa !213
  br label %16

11:                                               ; preds = %19, %5
  %12 = landingpad { ptr, i32 }
          cleanup
  invoke void @_ZN4absl12lts_202407225Mutex6UnlockEv(ptr noundef nonnull align 8 dereferenceable(8) %3)
          to label %_ZN4absl12lts_202407229MutexLockD2Ev.exit unwind label %13

13:                                               ; preds = %11
  %14 = landingpad { ptr, i32 }
          catch ptr null
  %15 = extractvalue { ptr, i32 } %14, 0
  tail call void @__clang_call_terminate(ptr %15) #47
  unreachable

_ZN4absl12lts_202407229MutexLockD2Ev.exit:        ; preds = %11
  resume { ptr, i32 } %12

16:                                               ; preds = %9, %2
  %17 = getelementptr inbounds nuw i8, ptr %1, i64 8
  %18 = load ptr, ptr %17, align 8, !tbaa !328
  %.not6 = icmp eq ptr %18, null
  br i1 %.not6, label %25, label %19

19:                                               ; preds = %16
  %20 = getelementptr inbounds nuw i8, ptr %0, i64 600
  %21 = load ptr, ptr %20, align 8, !tbaa !201
  %22 = invoke ptr @gpr_strdup(ptr noundef %21)
          to label %23 unwind label %11

23:                                               ; preds = %19
  %24 = load ptr, ptr %17, align 8, !tbaa !328
  store ptr %22, ptr %24, align 8, !tbaa !213
  br label %25

25:                                               ; preds = %23, %16
  invoke void @_ZN4absl12lts_202407225Mutex6UnlockEv(ptr noundef nonnull align 8 dereferenceable(8) %3)
          to label %_ZN4absl12lts_202407229MutexLockD2Ev.exit7 unwind label %26

26:                                               ; preds = %25
  %27 = landingpad { ptr, i32 }
          catch ptr null
  %28 = extractvalue { ptr, i32 } %27, 0
  tail call void @__clang_call_terminate(ptr %28) #47
  unreachable

_ZN4absl12lts_202407229MutexLockD2Ev.exit7:       ; preds = %25
  ret void
}